target datalayout = "e-m:e-p270:32:32-p271:32:32-p272:64:64-i64:64-i128:128-f80:128-n8:16:32:64-S128"
target triple = "x86_64-pc-linux-gnu"

%class.OopHandle = type { ptr }
%class.G1MonitoringSupport = type { ptr, %class.GCMemoryManager, %class.GCMemoryManager, %class.GCMemoryManager, ptr, ptr, ptr, ptr, ptr, ptr, ptr, ptr, ptr, ptr, ptr, ptr, i64, i64, i64, i64, i64, i64, i64, i64, i64 }
%class.GCMemoryManager = type <{ %class.MemoryManager.base, [7 x i8], i64, %class.elapsedTimer, ptr, ptr, ptr, i32, i8, [10 x i8], i8 }>
%class.MemoryManager.base = type <{ ptr, [10 x ptr], i32, [4 x i8], ptr, %class.OopHandle, i8 }>
%class.elapsedTimer = type <{ i64, i64, i8, [7 x i8] }>

; Function Attrs: mustprogress nounwind uwtable
define hidden void @_ZN19G1MonitoringSupport25initialize_serviceabilityEv(ptr noundef nonnull align 8 dereferenceable(752) %0) #1 align 2 {
  %2 = alloca i64, align 8
  %3 = alloca i8, align 1
  %4 = alloca i64, align 8
  %5 = alloca i8, align 1
  %6 = alloca i64, align 8
  %7 = alloca i8, align 1
  %8 = alloca i64, align 8
  %9 = alloca i64, align 8
  %10 = alloca i64, align 8
  %11 = alloca ptr, align 8
  store ptr %0, ptr %11, align 8
  %12 = load ptr, ptr %11, align 8
  store i64 216, ptr %8, align 8
  %13 = load i64, ptr %8, align 8
  store i64 %13, ptr %6, align 8
  store i8 9, ptr %7, align 1
  %14 = load i64, ptr %6, align 8
  %15 = load i8, ptr %7, align 1
  %16 = call noundef ptr @_Z12AllocateHeapm8MEMFLAGSN17AllocFailStrategy13AllocFailEnumE(i64 noundef %14, i8 noundef zeroext %15, i32 noundef 0) #9
  %17 = getelementptr inbounds %class.G1MonitoringSupport, ptr %12, i32 0, i32 0
  %18 = load ptr, ptr %17, align 8
  %19 = getelementptr inbounds %class.G1MonitoringSupport, ptr %12, i32 0, i32 20
  %20 = load i64, ptr %19, align 8
  call void @_ZN10G1EdenPoolC1EP15G1CollectedHeapm(ptr noundef nonnull align 8 dereferenceable(216) %16, ptr noundef %18, i64 noundef %20)
  %21 = getelementptr inbounds %class.G1MonitoringSupport, ptr %12, i32 0, i32 4
  store ptr %16, ptr %21, align 8
  store i64 216, ptr %9, align 8
  %22 = load i64, ptr %9, align 8
  store i64 %22, ptr %4, align 8
  store i8 9, ptr %5, align 1
  %23 = load i64, ptr %4, align 8
  %24 = load i8, ptr %5, align 1
  %25 = call noundef ptr @_Z12AllocateHeapm8MEMFLAGSN17AllocFailStrategy13AllocFailEnumE(i64 noundef %23, i8 noundef zeroext %24, i32 noundef 0) #9
  %26 = getelementptr inbounds %class.G1MonitoringSupport, ptr %12, i32 0, i32 0
  %27 = load ptr, ptr %26, align 8
  %28 = getelementptr inbounds %class.G1MonitoringSupport, ptr %12, i32 0, i32 22
  %29 = load i64, ptr %28, align 8
  call void @_ZN14G1SurvivorPoolC1EP15G1CollectedHeapm(ptr noundef nonnull align 8 dereferenceable(216) %25, ptr noundef %27, i64 noundef %29)
  %30 = getelementptr inbounds %class.G1MonitoringSupport, ptr %12, i32 0, i32 5
  store ptr %25, ptr %30, align 8
  store i64 216, ptr %10, align 8
  %31 = load i64, ptr %10, align 8
  store i64 %31, ptr %2, align 8
  store i8 9, ptr %3, align 1
  %32 = load i64, ptr %2, align 8
  %33 = load i8, ptr %3, align 1
  %34 = call noundef ptr @_Z12AllocateHeapm8MEMFLAGSN17AllocFailStrategy13AllocFailEnumE(i64 noundef %32, i8 noundef zeroext %33, i32 noundef 0) #9
  %35 = getelementptr inbounds %class.G1MonitoringSupport, ptr %12, i32 0, i32 0
  %36 = load ptr, ptr %35, align 8
  %37 = getelementptr inbounds %class.G1MonitoringSupport, ptr %12, i32 0, i32 19
  %38 = load i64, ptr %37, align 8
  %39 = getelementptr inbounds %class.G1MonitoringSupport, ptr %12, i32 0, i32 0
  %40 = load ptr, ptr %39, align 8
  %41 = load ptr, ptr %40, align 8
  %42 = getelementptr inbounds ptr, ptr %41, i64 15
  %43 = load ptr, ptr %42, align 8
  %44 = call noundef i64 %43(ptr noundef nonnull align 8 dereferenceable(1488) %40)
  call void @_ZN12G1OldGenPoolC1EP15G1CollectedHeapmm(ptr noundef nonnull align 8 dereferenceable(216) %34, ptr noundef %36, i64 noundef %38, i64 noundef %44)
  %45 = getelementptr inbounds %class.G1MonitoringSupport, ptr %12, i32 0, i32 6
  store ptr %34, ptr %45, align 8
  %46 = getelementptr inbounds %class.G1MonitoringSupport, ptr %12, i32 0, i32 2
  %47 = getelementptr inbounds %class.G1MonitoringSupport, ptr %12, i32 0, i32 4
  %48 = load ptr, ptr %47, align 8
  call void @_ZN15GCMemoryManager8add_poolEP10MemoryPool(ptr noundef nonnull align 8 dereferenceable(191) %46, ptr noundef %48)
  %49 = getelementptr inbounds %class.G1MonitoringSupport, ptr %12, i32 0, i32 2
  %50 = getelementptr inbounds %class.G1MonitoringSupport, ptr %12, i32 0, i32 5
  %51 = load ptr, ptr %50, align 8
  call void @_ZN15GCMemoryManager8add_poolEP10MemoryPool(ptr noundef nonnull align 8 dereferenceable(191) %49, ptr noundef %51)
  %52 = getelementptr inbounds %class.G1MonitoringSupport, ptr %12, i32 0, i32 2
  %53 = getelementptr inbounds %class.G1MonitoringSupport, ptr %12, i32 0, i32 6
  %54 = load ptr, ptr %53, align 8
  call void @_ZN15GCMemoryManager8add_poolEP10MemoryPool(ptr noundef nonnull align 8 dereferenceable(191) %52, ptr noundef %54)
  %55 = getelementptr inbounds %class.G1MonitoringSupport, ptr %12, i32 0, i32 3
  %56 = getelementptr inbounds %class.G1MonitoringSupport, ptr %12, i32 0, i32 6
  %57 = load ptr, ptr %56, align 8
  call void @_ZN15GCMemoryManager8add_poolEP10MemoryPool(ptr noundef nonnull align 8 dereferenceable(191) %55, ptr noundef %57)
  %58 = getelementptr inbounds %class.G1MonitoringSupport, ptr %12, i32 0, i32 1
  %59 = getelementptr inbounds %class.G1MonitoringSupport, ptr %12, i32 0, i32 4
  %60 = load ptr, ptr %59, align 8
  call void @_ZN15GCMemoryManager8add_poolEP10MemoryPool(ptr noundef nonnull align 8 dereferenceable(191) %58, ptr noundef %60)
  %61 = getelementptr inbounds %class.G1MonitoringSupport, ptr %12, i32 0, i32 1
  %62 = getelementptr inbounds %class.G1MonitoringSupport, ptr %12, i32 0, i32 5
  %63 = load ptr, ptr %62, align 8
  call void @_ZN15GCMemoryManager8add_poolEP10MemoryPool(ptr noundef nonnull align 8 dereferenceable(191) %61, ptr noundef %63)
  %64 = getelementptr inbounds %class.G1MonitoringSupport, ptr %12, i32 0, i32 1
  %65 = getelementptr inbounds %class.G1MonitoringSupport, ptr %12, i32 0, i32 6
  %66 = load ptr, ptr %65, align 8
  call void @_ZN15GCMemoryManager8add_poolEP10MemoryPoolb(ptr noundef nonnull align 8 dereferenceable(191) %64, ptr noundef %66, i1 noundef zeroext false)
  ret void
}