; Function Attrs: mustprogress nounwind uwtable
define hidden void @_ZN19G1MonitoringSupport25initialize_serviceabilityEv(ptr noundef nonnull align 8 dereferenceable(752) %0) local_unnamed_addr #0 align 2 {
  %2 = tail call noundef ptr @_Z12AllocateHeapm8MEMFLAGSN17AllocFailStrategy13AllocFailEnumE(i64 noundef 216, i8 noundef zeroext 9, i32 noundef 0) #10
  %3 = load ptr, ptr %0, align 8
  %4 = getelementptr inbounds i8, ptr %0, i64 712
  %5 = load i64, ptr %4, align 8
  tail call void @_ZN10G1EdenPoolC1EP15G1CollectedHeapm(ptr noundef nonnull align 8 dereferenceable(216) %2, ptr noundef %3, i64 noundef %5) #10
  %6 = getelementptr inbounds i8, ptr %0, i64 584
  store ptr %2, ptr %6, align 8
  %7 = tail call noundef ptr @_Z12AllocateHeapm8MEMFLAGSN17AllocFailStrategy13AllocFailEnumE(i64 noundef 216, i8 noundef zeroext 9, i32 noundef 0) #10
  %8 = load ptr, ptr %0, align 8
  %9 = getelementptr inbounds i8, ptr %0, i64 728
  %10 = load i64, ptr %9, align 8
  tail call void @_ZN14G1SurvivorPoolC1EP15G1CollectedHeapm(ptr noundef nonnull align 8 dereferenceable(216) %7, ptr noundef %8, i64 noundef %10) #10
  %11 = getelementptr inbounds i8, ptr %0, i64 592
  store ptr %7, ptr %11, align 8
  %12 = tail call noundef ptr @_Z12AllocateHeapm8MEMFLAGSN17AllocFailStrategy13AllocFailEnumE(i64 noundef 216, i8 noundef zeroext 9, i32 noundef 0) #10
  %13 = load ptr, ptr %0, align 8
  %14 = getelementptr inbounds i8, ptr %0, i64 704
  %15 = load i64, ptr %14, align 8
  %16 = load ptr, ptr %13, align 8
  %17 = getelementptr inbounds i8, ptr %16, i64 120
  %18 = load ptr, ptr %17, align 8
  %19 = tail call noundef i64 %18(ptr noundef nonnull align 8 dereferenceable(1488) %13) #10
  tail call void @_ZN12G1OldGenPoolC1EP15G1CollectedHeapmm(ptr noundef nonnull align 8 dereferenceable(216) %12, ptr noundef nonnull %13, i64 noundef %15, i64 noundef %19) #10
  %20 = getelementptr inbounds i8, ptr %0, i64 600
  store ptr %12, ptr %20, align 8
  %21 = getelementptr inbounds i8, ptr %0, i64 200
  %22 = load ptr, ptr %6, align 8
  tail call void @_ZN15GCMemoryManager8add_poolEP10MemoryPool(ptr noundef nonnull align 8 dereferenceable(191) %21, ptr noundef %22) #10
  %23 = load ptr, ptr %11, align 8
  tail call void @_ZN15GCMemoryManager8add_poolEP10MemoryPool(ptr noundef nonnull align 8 dereferenceable(191) %21, ptr noundef %23) #10
  %24 = load ptr, ptr %20, align 8
  tail call void @_ZN15GCMemoryManager8add_poolEP10MemoryPool(ptr noundef nonnull align 8 dereferenceable(191) %21, ptr noundef %24) #10
  %25 = getelementptr inbounds i8, ptr %0, i64 392
  %26 = load ptr, ptr %20, align 8
  tail call void @_ZN15GCMemoryManager8add_poolEP10MemoryPool(ptr noundef nonnull align 8 dereferenceable(191) %25, ptr noundef %26) #10
  %27 = getelementptr inbounds i8, ptr %0, i64 8
  %28 = load ptr, ptr %6, align 8
  tail call void @_ZN15GCMemoryManager8add_poolEP10MemoryPool(ptr noundef nonnull align 8 dereferenceable(191) %27, ptr noundef %28) #10
  %29 = load ptr, ptr %11, align 8
  tail call void @_ZN15GCMemoryManager8add_poolEP10MemoryPool(ptr noundef nonnull align 8 dereferenceable(191) %27, ptr noundef %29) #10
  %30 = load ptr, ptr %20, align 8
  tail call void @_ZN15GCMemoryManager8add_poolEP10MemoryPoolb(ptr noundef nonnull align 8 dereferenceable(191) %27, ptr noundef %30, i1 noundef zeroext false) #10
  ret void
}